; ModuleID = 'bench/openusd/original/align.cpp.ll'
source_filename = "bench/openusd/original/align.cpp.ll"
target datalayout = "e-m:e-p270:32:32-p271:32:32-p272:64:64-i64:64-i128:128-f80:128-n8:16:32:64-S128"
target triple = "x86_64-pc-linux-gnu"

; Function Attrs: mustprogress nofree nounwind willreturn memory(inaccessiblemem: readwrite) uwtable
define noundef ptr @_ZN32pxrInternal_v0_24__pxrReserved__16ArchAlignedAllocEmm(i64 noundef %0, i64 noundef %1) local_unnamed_addr #0 {
  %3 = tail call noalias ptr @aligned_alloc(i64 noundef %0, i64 noundef %1) #5
  call void @llvm.assume(i1 true) [ "align"(ptr %3, i64 %0) ]
  ret ptr %3
}

; Function Attrs: mustprogress nofree nounwind willreturn allockind("alloc,uninitialized,aligned") allocsize(1) memory(inaccessiblemem: readwrite)
declare noalias noundef ptr @aligned_alloc(i64 allocalign noundef, i64 noundef) local_unnamed_addr #1

; Function Attrs: mustprogress nocallback nofree nosync nounwind willreturn memory(inaccessiblemem: write)
declare void @llvm.assume(i1 noundef) #2

; Function Attrs: mustprogress nounwind willreturn memory(argmem: readwrite, inaccessiblemem: readwrite) uwtable
define void @_ZN32pxrInternal_v0_24__pxrReserved__15ArchAlignedFreeEPv(ptr nocapture noundef %0) local_unnamed_addr #3 {
  tail call void @free(ptr noundef %0) #6
  ret void
}

; Function Attrs: mustprogress nounwind willreturn allockind("free") memory(argmem: readwrite, inaccessiblemem: readwrite)
declare void @free(ptr allocptr nocapture noundef) local_unnamed_addr #4


!llvm.module.flags = !{!0, !1, !2, !3}

!0 = !{i32 1, !"wchar_size", i32 4}
!1 = !{i32 8, !"PIC Level", i32 2}
!2 = !{i32 7, !"uwtable", i32 2}
!3 = !{i32 7, !"frame-pointer", i32 2}
